; Function Attrs: mustprogress nofree norecurse nosync nounwind willreturn memory(argmem: readwrite) uwtable
define internal noundef zeroext i1 @"_ZNSt17_Function_handlerIFivEZN2tf12DataPipelineIJNS1_8DataPipeIviZ4mainE3$_0EENS3_IiNSt7__cxx1112basic_stringIcSt11char_traitsIcESaIcEEEZ4mainE3$_1EENS3_ISB_vZ4mainE3$_2EEEE6_buildEvEUlvE_E10_M_managerERSt9_Any_dataRKSJ_St18_Manager_operation"(ptr nocapture noundef nonnull writeonly align 8 dereferenceable(16) %__dest, ptr noundef nonnull align 8 dereferenceable(16) %__source, i32 noundef %__op) #25 align 2 personality ptr @__gxx_personality_v0 {
entry:
  switch i32 %__op, label %sw.epilog [
    i32 0, label %sw.bb
    i32 1, label %sw.bb1
    i32 2, label %sw.bb4.i
  ]

sw.bb:                                            ; preds = %entry
  store ptr @"_ZTIZN2tf12DataPipelineIJNS_8DataPipeIviZ4mainE3$_0EENS1_IiNSt7__cxx1112basic_stringIcSt11char_traitsIcESaIcEEEZ4mainE3$_1EENS1_IS9_vZ4mainE3$_2EEEE6_buildEvEUlvE_", ptr %__dest, align 8
  br label %sw.epilog

sw.bb1:                                           ; preds = %entry
  store ptr %__source, ptr %__dest, align 8
  br label %sw.epilog

sw.bb4.i:                                         ; preds = %entry
  %call5.val.i = load i64, ptr %__source, align 8
  store i64 %call5.val.i, ptr %__dest, align 8
  br label %sw.epilog

sw.epilog:                                        ; preds = %entry, %sw.bb4.i, %sw.bb1, %sw.bb
  ret i1 false
}